; Function Attrs: null_pointer_is_valid sspstrong uwtable
define internal fastcc i32 @dissect_query_afp_set_ext_attr(ptr noundef %0, ptr noundef readonly captures(none) %1, ptr noundef %2) unnamed_addr #1 {
  %4 = alloca i32, align 4
  call void @llvm.lifetime.start.p0(i64 4, ptr nonnull %4) #8
  %5 = load i32, ptr @hf_afp_pad, align 4
  %6 = tail call ptr @proto_tree_add_item(ptr noundef %2, i32 noundef %5, ptr noundef %0, i32 noundef 1, i32 noundef 1, i32 noundef 0)
  %7 = tail call zeroext i16 @tvb_get_ntohs(ptr noundef %0, i32 noundef 2)
  %8 = zext i16 %7 to i32
  store i32 %8, ptr @Vol, align 4
  %9 = load i32, ptr @hf_afp_vol_id, align 4
  %10 = tail call ptr @proto_tree_add_item(ptr noundef %2, i32 noundef %9, ptr noundef %0, i32 noundef 2, i32 noundef 2, i32 noundef 0)
  %11 = tail call i32 @tvb_get_ntohl(ptr noundef %0, i32 noundef 4)
  store i32 %11, ptr @Did, align 4
  %12 = load i32, ptr @hf_afp_did, align 4
  %13 = tail call ptr @proto_tree_add_item(ptr noundef %2, i32 noundef %12, ptr noundef %0, i32 noundef 4, i32 noundef 4, i32 noundef 0)
  %14 = load i32, ptr @hf_afp_extattr_bitmap, align 4
  %15 = load i32, ptr @ett_afp_extattr_bitmap, align 4
  %16 = tail call ptr @proto_tree_add_bitmask(ptr noundef %2, ptr noundef %0, i32 noundef 8, i32 noundef %14, i32 noundef %15, ptr noundef nonnull @decode_attr_bitmap.bitmaps, i32 noundef 0)
  %17 = load i32, ptr @hf_afp_offset64, align 4
  %18 = tail call ptr @proto_tree_add_item(ptr noundef %2, i32 noundef %17, ptr noundef %0, i32 noundef 10, i32 noundef 8, i32 noundef 0)
  %19 = tail call fastcc i32 @decode_name_label(ptr noundef %2, ptr noundef readonly %1, ptr noundef %0, i32 noundef 18, ptr noundef nonnull @.str.1065, i1 noundef zeroext true)
  %20 = tail call fastcc i32 @decode_attr_name(ptr noundef %2, ptr noundef %1, ptr noundef %0, i32 noundef %19)
  %21 = load i32, ptr @hf_afp_extattr_len, align 4
  %22 = call ptr @proto_tree_add_item_ret_uint(ptr noundef %2, i32 noundef %21, ptr noundef %0, i32 noundef %20, i32 noundef 4, i32 noundef 0, ptr noundef nonnull %4)
  %23 = add i32 %20, 4
  %24 = load i32, ptr @hf_afp_extattr_data, align 4
  %25 = load i32, ptr %4, align 4
  %26 = call ptr @proto_tree_add_item(ptr noundef %2, i32 noundef %24, ptr noundef %0, i32 noundef %23, i32 noundef %25, i32 noundef 0)
  %27 = load i32, ptr %4, align 4
  %28 = add i32 %27, %23
  call void @llvm.lifetime.end.p0(i64 4, ptr nonnull %4) #8
  ret i32 %28
}